target datalayout = "e-m:e-p270:32:32-p271:32:32-p272:64:64-i64:64-i128:128-f80:128-n8:16:32:64-S128"
target triple = "x86_64-pc-linux-gnu"

%"class.pxrInternal_v0_24__pxrReserved__::pxr_double_conversion::Bignum" = type { i16, i16, [128 x i32] }

; Function Attrs: mustprogress nounwind uwtable
define noundef nonnull align 4 dereferenceable(4) ptr @_ZN32pxrInternal_v0_24__pxrReserved__21pxr_double_conversion6Bignum8RawBigitEi(ptr noundef nonnull align 4 dereferenceable(516) %0, i32 noundef %1) #0 align 2 {
  %3 = alloca ptr, align 8
  %4 = alloca i32, align 4
  store ptr %0, ptr %3, align 8
  store i32 %1, ptr %4, align 4
  %5 = load ptr, ptr %3, align 8
  %6 = getelementptr inbounds nuw %"class.pxrInternal_v0_24__pxrReserved__::pxr_double_conversion::Bignum", ptr %5, i32 0, i32 2
  %7 = load i32, ptr %4, align 4
  %8 = sext i32 %7 to i64
  %9 = getelementptr inbounds [128 x i32], ptr %6, i64 0, i64 %8
  ret ptr %9
}

; Function Attrs: mustprogress nounwind uwtable
define void @_ZN32pxrInternal_v0_24__pxrReserved__21pxr_double_conversion6Bignum5ClampEv(ptr noundef nonnull align 4 dereferenceable(516) %0) #0 align 2 {
  %2 = alloca ptr, align 8
  store ptr %0, ptr %2, align 8
  %3 = load ptr, ptr %2, align 8
  br label %4

4:                                                ; preds = %19, %1
  %5 = getelementptr inbounds nuw %"class.pxrInternal_v0_24__pxrReserved__::pxr_double_conversion::Bignum", ptr %3, i32 0, i32 0
  %6 = load i16, ptr %5, align 4
  %7 = sext i16 %6 to i32
  %8 = icmp sgt i32 %7, 0
  br i1 %8, label %9, label %17

9:                                                ; preds = %4
  %10 = getelementptr inbounds nuw %"class.pxrInternal_v0_24__pxrReserved__::pxr_double_conversion::Bignum", ptr %3, i32 0, i32 0
  %11 = load i16, ptr %10, align 4
  %12 = sext i16 %11 to i32
  %13 = sub nsw i32 %12, 1
  %14 = call noundef nonnull align 4 dereferenceable(4) ptr @_ZN32pxrInternal_v0_24__pxrReserved__21pxr_double_conversion6Bignum8RawBigitEi(ptr noundef nonnull align 4 dereferenceable(516) %3, i32 noundef %13)
  %15 = load i32, ptr %14, align 4
  %16 = icmp eq i32 %15, 0
  br label %17

17:                                               ; preds = %9, %4
  %18 = phi i1 [ false, %4 ], [ %16, %9 ]
  br i1 %18, label %19, label %23

19:                                               ; preds = %17
  %20 = getelementptr inbounds nuw %"class.pxrInternal_v0_24__pxrReserved__::pxr_double_conversion::Bignum", ptr %3, i32 0, i32 0
  %21 = load i16, ptr %20, align 4
  %22 = add i16 %21, -1
  store i16 %22, ptr %20, align 4
  br label %4, !llvm.loop !11

23:                                               ; preds = %17
  %24 = getelementptr inbounds nuw %"class.pxrInternal_v0_24__pxrReserved__::pxr_double_conversion::Bignum", ptr %3, i32 0, i32 0
  %25 = load i16, ptr %24, align 4
  %26 = sext i16 %25 to i32
  %27 = icmp eq i32 %26, 0
  br i1 %27, label %28, label %30

28:                                               ; preds = %23
  %29 = getelementptr inbounds nuw %"class.pxrInternal_v0_24__pxrReserved__::pxr_double_conversion::Bignum", ptr %3, i32 0, i32 1
  store i16 0, ptr %29, align 2
  br label %30

30:                                               ; preds = %28, %23
  ret void
}